; ModuleID = 'bench/abc/original/rsbMan.ll'
source_filename = "bench/abc/original/rsbMan.ll"
target datalayout = "e-m:e-p270:32:32-p271:32:32-p272:64:64-i64:64-i128:128-f80:128-n8:16:32:64-S128"
target triple = "x86_64-pc-linux-gnu"

; Function Attrs: mustprogress nofree nounwind willreturn memory(write, argmem: none, inaccessiblemem: readwrite) uwtable
define noalias noundef ptr @Rsb_ManAlloc(i32 noundef %0, i32 noundef %1, i32 noundef %2, i32 noundef %3) local_unnamed_addr #0 {
  %5 = tail call noalias dereferenceable_or_null(56) ptr @calloc(i64 noundef 1, i64 noundef 56) #7
  store i32 %0, ptr %5, align 8, !tbaa !3
  %6 = getelementptr inbounds nuw i8, ptr %5, i64 4
  store i32 %1, ptr %6, align 4, !tbaa !11
  %7 = getelementptr inbounds nuw i8, ptr %5, i64 8
  store i32 %2, ptr %7, align 8, !tbaa !12
  %8 = getelementptr inbounds nuw i8, ptr %5, i64 12
  store i32 %3, ptr %8, align 4, !tbaa !13
  %9 = add nsw i32 %1, 150
  %10 = tail call noalias dereferenceable_or_null(16) ptr @malloc(i64 noundef 16) #8
  %11 = add nsw i32 %1, 149
  %or.cond.i = icmp ult i32 %11, 15
  %spec.store.select.i = select i1 %or.cond.i, i32 16, i32 %9
  %12 = getelementptr inbounds nuw i8, ptr %10, i64 4
  store i32 0, ptr %12, align 4, !tbaa !14
  store i32 %spec.store.select.i, ptr %10, align 8, !tbaa !17
  %.not.i = icmp eq i32 %spec.store.select.i, 0
  br i1 %.not.i, label %Vec_WrdAlloc.exit, label %13

13:                                               ; preds = %4
  %14 = sext i32 %spec.store.select.i to i64
  %15 = shl nsw i64 %14, 3
  %16 = tail call noalias ptr @malloc(i64 noundef %15) #8
  br label %Vec_WrdAlloc.exit

Vec_WrdAlloc.exit:                                ; preds = %4, %13
  %17 = phi ptr [ %16, %13 ], [ null, %4 ]
  %18 = getelementptr inbounds nuw i8, ptr %10, i64 8
  store ptr %17, ptr %18, align 8, !tbaa !18
  %19 = getelementptr inbounds nuw i8, ptr %5, i64 16
  store ptr %10, ptr %19, align 8, !tbaa !19
  %20 = icmp slt i32 %0, 7
  %21 = add nsw i32 %0, -6
  %22 = shl nuw i32 1, %21
  %23 = tail call noalias dereferenceable_or_null(16) ptr @malloc(i64 noundef 16) #8
  %24 = tail call i32 @llvm.umax.i32(i32 %22, i32 16)
  %spec.store.select.i16 = select i1 %20, i32 16, i32 %24
  %25 = getelementptr inbounds nuw i8, ptr %23, i64 4
  store i32 0, ptr %25, align 4, !tbaa !20
  store i32 %spec.store.select.i16, ptr %23, align 8, !tbaa !23
  %26 = sext i32 %spec.store.select.i16 to i64
  %27 = shl nsw i64 %26, 2
  %28 = tail call noalias ptr @malloc(i64 noundef %27) #8
  %29 = getelementptr inbounds nuw i8, ptr %23, i64 8
  store ptr %28, ptr %29, align 8, !tbaa !24
  %30 = getelementptr inbounds nuw i8, ptr %5, i64 24
  store ptr %23, ptr %30, align 8, !tbaa !25
  %31 = tail call noalias dereferenceable_or_null(16) ptr @malloc(i64 noundef 16) #8
  %32 = getelementptr inbounds nuw i8, ptr %31, i64 4
  store i32 0, ptr %32, align 4, !tbaa !20
  store i32 16, ptr %31, align 8, !tbaa !23
  %33 = tail call noalias dereferenceable_or_null(64) ptr @malloc(i64 noundef 64) #8
  %34 = getelementptr inbounds nuw i8, ptr %31, i64 8
  store ptr %33, ptr %34, align 8, !tbaa !24
  %35 = getelementptr inbounds nuw i8, ptr %5, i64 32
  store ptr %31, ptr %35, align 8, !tbaa !26
  %36 = tail call noalias dereferenceable_or_null(16) ptr @malloc(i64 noundef 16) #8
  %37 = getelementptr inbounds nuw i8, ptr %36, i64 4
  store i32 0, ptr %37, align 4, !tbaa !20
  store i32 16, ptr %36, align 8, !tbaa !23
  %38 = tail call noalias dereferenceable_or_null(64) ptr @malloc(i64 noundef 64) #8
  %39 = getelementptr inbounds nuw i8, ptr %36, i64 8
  store ptr %38, ptr %39, align 8, !tbaa !24
  %40 = getelementptr inbounds nuw i8, ptr %5, i64 40
  store ptr %36, ptr %40, align 8, !tbaa !27
  %41 = tail call noalias dereferenceable_or_null(16) ptr @malloc(i64 noundef 16) #8
  %42 = getelementptr inbounds nuw i8, ptr %41, i64 4
  store i32 0, ptr %42, align 4, !tbaa !20
  store i32 16, ptr %41, align 8, !tbaa !23
  %43 = tail call noalias dereferenceable_or_null(64) ptr @malloc(i64 noundef 64) #8
  %44 = getelementptr inbounds nuw i8, ptr %41, i64 8
  store ptr %43, ptr %44, align 8, !tbaa !24
  %45 = getelementptr inbounds nuw i8, ptr %5, i64 48
  store ptr %41, ptr %45, align 8, !tbaa !28
  ret ptr %5
}

; Function Attrs: mustprogress nofree nounwind willreturn allockind("alloc,zeroed") allocsize(0,1) memory(inaccessiblemem: readwrite)
declare noalias noundef ptr @calloc(i64 noundef, i64 noundef) local_unnamed_addr #1

; Function Attrs: mustprogress nounwind willreturn uwtable
define void @Rsb_ManFree(ptr noundef captures(none) %0) local_unnamed_addr #2 {
  %2 = getelementptr inbounds nuw i8, ptr %0, i64 16
  %3 = load ptr, ptr %2, align 8, !tbaa !19
  %4 = getelementptr inbounds nuw i8, ptr %3, i64 8
  %5 = load ptr, ptr %4, align 8, !tbaa !18
  %.not.i = icmp eq ptr %5, null
  br i1 %.not.i, label %Vec_WrdFree.exit, label %6

6:                                                ; preds = %1
  tail call void @free(ptr noundef nonnull %5) #9
  br label %Vec_WrdFree.exit

Vec_WrdFree.exit:                                 ; preds = %1, %6
  tail call void @free(ptr noundef nonnull %3) #9
  %7 = getelementptr inbounds nuw i8, ptr %0, i64 24
  %8 = load ptr, ptr %7, align 8, !tbaa !25
  %9 = getelementptr inbounds nuw i8, ptr %8, i64 8
  %10 = load ptr, ptr %9, align 8, !tbaa !24
  %.not.i7 = icmp eq ptr %10, null
  br i1 %.not.i7, label %Vec_IntFree.exit, label %11

11:                                               ; preds = %Vec_WrdFree.exit
  tail call void @free(ptr noundef nonnull %10) #9
  br label %Vec_IntFree.exit

Vec_IntFree.exit:                                 ; preds = %Vec_WrdFree.exit, %11
  tail call void @free(ptr noundef nonnull %8) #9
  %12 = getelementptr inbounds nuw i8, ptr %0, i64 32
  %13 = load ptr, ptr %12, align 8, !tbaa !26
  %14 = getelementptr inbounds nuw i8, ptr %13, i64 8
  %15 = load ptr, ptr %14, align 8, !tbaa !24
  %.not.i8 = icmp eq ptr %15, null
  br i1 %.not.i8, label %Vec_IntFree.exit9, label %16

16:                                               ; preds = %Vec_IntFree.exit
  tail call void @free(ptr noundef nonnull %15) #9
  br label %Vec_IntFree.exit9

Vec_IntFree.exit9:                                ; preds = %Vec_IntFree.exit, %16
  tail call void @free(ptr noundef nonnull %13) #9
  %17 = getelementptr inbounds nuw i8, ptr %0, i64 40
  %18 = load ptr, ptr %17, align 8, !tbaa !27
  %19 = getelementptr inbounds nuw i8, ptr %18, i64 8
  %20 = load ptr, ptr %19, align 8, !tbaa !24
  %.not.i10 = icmp eq ptr %20, null
  br i1 %.not.i10, label %Vec_IntFree.exit11, label %21

21:                                               ; preds = %Vec_IntFree.exit9
  tail call void @free(ptr noundef nonnull %20) #9
  br label %Vec_IntFree.exit11

Vec_IntFree.exit11:                               ; preds = %Vec_IntFree.exit9, %21
  tail call void @free(ptr noundef nonnull %18) #9
  %22 = getelementptr inbounds nuw i8, ptr %0, i64 48
  %23 = load ptr, ptr %22, align 8, !tbaa !28
  %24 = getelementptr inbounds nuw i8, ptr %23, i64 8
  %25 = load ptr, ptr %24, align 8, !tbaa !24
  %.not.i12 = icmp eq ptr %25, null
  br i1 %.not.i12, label %27, label %26

26:                                               ; preds = %Vec_IntFree.exit11
  tail call void @free(ptr noundef nonnull %25) #9
  br label %27

27:                                               ; preds = %Vec_IntFree.exit11, %26
  tail call void @free(ptr noundef nonnull %23) #9
  tail call void @free(ptr noundef nonnull %0) #9
  ret void
}

; Function Attrs: mustprogress nounwind willreturn allockind("free") memory(argmem: readwrite, inaccessiblemem: readwrite)
declare void @free(ptr allocptr noundef captures(none)) local_unnamed_addr #3

; Function Attrs: mustprogress nofree norecurse nosync nounwind willreturn memory(argmem: read) uwtable
define ptr @Rsb_ManGetFanins(ptr noundef readonly captures(none) %0) local_unnamed_addr #4 {
  %2 = getelementptr inbounds nuw i8, ptr %0, i64 32
  %3 = load ptr, ptr %2, align 8, !tbaa !26
  ret ptr %3
}

; Function Attrs: mustprogress nofree norecurse nosync nounwind willreturn memory(argmem: read) uwtable
define ptr @Rsb_ManGetFaninsOld(ptr noundef readonly captures(none) %0) local_unnamed_addr #4 {
  %2 = getelementptr inbounds nuw i8, ptr %0, i64 40
  %3 = load ptr, ptr %2, align 8, !tbaa !27
  ret ptr %3
}

; Function Attrs: mustprogress nofree nounwind willreturn allockind("alloc,uninitialized") allocsize(0) memory(inaccessiblemem: readwrite)
declare noalias noundef ptr @malloc(i64 noundef) local_unnamed_addr #5

; Function Attrs: nocallback nofree nosync nounwind speculatable willreturn memory(none)
declare i32 @llvm.umax.i32(i32, i32) #6


!llvm.module.flags = !{!0, !1, !2}

!0 = !{i32 1, !"wchar_size", i32 4}
!1 = !{i32 8, !"PIC Level", i32 2}
!2 = !{i32 7, !"uwtable", i32 2}
!3 = !{!4, !5, i64 0}
!4 = !{!"Rsb_Man_t_", !5, i64 0, !5, i64 4, !5, i64 8, !5, i64 12, !8, i64 16, !10, i64 24, !10, i64 32, !10, i64 40, !10, i64 48}
!5 = !{!"int", !6, i64 0}
!6 = !{!"omnipotent char", !7, i64 0}
!7 = !{!"Simple C/C++ TBAA"}
!8 = !{!"p1 _ZTS10Vec_Wrd_t_", !9, i64 0}
!9 = !{!"any pointer", !6, i64 0}
!10 = !{!"p1 _ZTS10Vec_Int_t_", !9, i64 0}
!11 = !{!4, !5, i64 4}
!12 = !{!4, !5, i64 8}
!13 = !{!4, !5, i64 12}
!14 = !{!15, !5, i64 4}
!15 = !{!"Vec_Wrd_t_", !5, i64 0, !5, i64 4, !16, i64 8}
!16 = !{!"p1 long", !9, i64 0}
!17 = !{!15, !5, i64 0}
!18 = !{!15, !16, i64 8}
!19 = !{!4, !8, i64 16}
!20 = !{!21, !5, i64 4}
!21 = !{!"Vec_Int_t_", !5, i64 0, !5, i64 4, !22, i64 8}
!22 = !{!"p1 int", !9, i64 0}
!23 = !{!21, !5, i64 0}
!24 = !{!21, !22, i64 8}
!25 = !{!4, !10, i64 24}
!26 = !{!4, !10, i64 32}
!27 = !{!4, !10, i64 40}
!28 = !{!4, !10, i64 48}
